target datalayout = "e-m:e-p270:32:32-p271:32:32-p272:64:64-i64:64-i128:128-f80:128-n8:16:32:64-S128"
target triple = "x86_64-pc-linux-gnu"

%struct.yyguts_t = type { ptr, ptr, ptr, i64, i64, ptr, i8, i32, i32, ptr, i32, i32, i32, i32, i32, ptr, i32, ptr, i32, i32, ptr, i32, i32 }

; Function Attrs: mustprogress nounwind uwtable
define internal noundef i32 @_ZL15yy_init_globalsPv(ptr noundef %0) #1 {
  %2 = alloca ptr, align 8
  %3 = alloca ptr, align 8
  store ptr %0, ptr %2, align 8
  %4 = load ptr, ptr %2, align 8
  store ptr %4, ptr %3, align 8
  %5 = load ptr, ptr %3, align 8
  %6 = getelementptr inbounds %struct.yyguts_t, ptr %5, i32 0, i32 5
  store ptr null, ptr %6, align 8
  %7 = load ptr, ptr %3, align 8
  %8 = getelementptr inbounds %struct.yyguts_t, ptr %7, i32 0, i32 3
  store i64 0, ptr %8, align 8
  %9 = load ptr, ptr %3, align 8
  %10 = getelementptr inbounds %struct.yyguts_t, ptr %9, i32 0, i32 4
  store i64 0, ptr %10, align 8
  %11 = load ptr, ptr %3, align 8
  %12 = getelementptr inbounds %struct.yyguts_t, ptr %11, i32 0, i32 9
  store ptr null, ptr %12, align 8
  %13 = load ptr, ptr %3, align 8
  %14 = getelementptr inbounds %struct.yyguts_t, ptr %13, i32 0, i32 10
  store i32 0, ptr %14, align 8
  %15 = load ptr, ptr %3, align 8
  %16 = getelementptr inbounds %struct.yyguts_t, ptr %15, i32 0, i32 11
  store i32 0, ptr %16, align 4
  %17 = load ptr, ptr %3, align 8
  %18 = getelementptr inbounds %struct.yyguts_t, ptr %17, i32 0, i32 13
  store i32 0, ptr %18, align 4
  %19 = load ptr, ptr %3, align 8
  %20 = getelementptr inbounds %struct.yyguts_t, ptr %19, i32 0, i32 14
  store i32 0, ptr %20, align 8
  %21 = load ptr, ptr %3, align 8
  %22 = getelementptr inbounds %struct.yyguts_t, ptr %21, i32 0, i32 15
  store ptr null, ptr %22, align 8
  %23 = load ptr, ptr %3, align 8
  %24 = getelementptr inbounds %struct.yyguts_t, ptr %23, i32 0, i32 1
  store ptr null, ptr %24, align 8
  %25 = load ptr, ptr %3, align 8
  %26 = getelementptr inbounds %struct.yyguts_t, ptr %25, i32 0, i32 2
  store ptr null, ptr %26, align 8
  ret i32 0
}

; Function Attrs: mustprogress nounwind uwtable
define dso_local noundef ptr @_Z14cmExpr_yyallocmPv(i64 noundef %0, ptr noundef %1) #1 {
  %3 = alloca i64, align 8
  %4 = alloca ptr, align 8
  %5 = alloca ptr, align 8
  store i64 %0, ptr %3, align 8
  store ptr %1, ptr %4, align 8
  %6 = load ptr, ptr %4, align 8
  store ptr %6, ptr %5, align 8
  %7 = load i64, ptr %3, align 8
  %8 = call noalias ptr @malloc(i64 noundef %7) #17
  ret ptr %8
}

; Function Attrs: mustprogress nounwind uwtable
define dso_local void @_Z18cmExpr_yyset_extraP18cmExprParserHelperPv(ptr noundef %0, ptr noundef %1) #1 {
  %3 = alloca ptr, align 8
  %4 = alloca ptr, align 8
  %5 = alloca ptr, align 8
  store ptr %0, ptr %3, align 8
  store ptr %1, ptr %4, align 8
  %6 = load ptr, ptr %4, align 8
  store ptr %6, ptr %5, align 8
  %7 = load ptr, ptr %3, align 8
  %8 = load ptr, ptr %5, align 8
  %9 = getelementptr inbounds %struct.yyguts_t, ptr %8, i32 0, i32 0
  store ptr %7, ptr %9, align 8
  ret void
}

; Function Attrs: mustprogress uwtable
define dso_local noundef i32 @_Z23cmExpr_yylex_init_extraP18cmExprParserHelperPPv(ptr noundef %0, ptr noundef %1) #0 {
  %3 = alloca i32, align 4
  %4 = alloca ptr, align 8
  %5 = alloca ptr, align 8
  %6 = alloca %struct.yyguts_t, align 8
  store ptr %0, ptr %4, align 8
  store ptr %1, ptr %5, align 8
  %7 = load ptr, ptr %4, align 8
  call void @_Z18cmExpr_yyset_extraP18cmExprParserHelperPv(ptr noundef %7, ptr noundef %6)
  %8 = load ptr, ptr %5, align 8
  %9 = icmp eq ptr %8, null
  br i1 %9, label %10, label %12

10:                                               ; preds = %2
  %11 = call ptr @__errno_location() #16
  store i32 22, ptr %11, align 4
  store i32 1, ptr %3, align 4
  br label %29

12:                                               ; preds = %2
  %13 = call noundef ptr @_Z14cmExpr_yyallocmPv(i64 noundef 144, ptr noundef %6)
  %14 = load ptr, ptr %5, align 8
  store ptr %13, ptr %14, align 8
  %15 = load ptr, ptr %5, align 8
  %16 = load ptr, ptr %15, align 8
  %17 = icmp eq ptr %16, null
  br i1 %17, label %18, label %20

18:                                               ; preds = %12
  %19 = call ptr @__errno_location() #16
  store i32 12, ptr %19, align 4
  store i32 1, ptr %3, align 4
  br label %29

20:                                               ; preds = %12
  %21 = load ptr, ptr %5, align 8
  %22 = load ptr, ptr %21, align 8
  call void @llvm.memset.p0.i64(ptr align 1 %22, i8 0, i64 144, i1 false)
  %23 = load ptr, ptr %4, align 8
  %24 = load ptr, ptr %5, align 8
  %25 = load ptr, ptr %24, align 8
  call void @_Z18cmExpr_yyset_extraP18cmExprParserHelperPv(ptr noundef %23, ptr noundef %25)
  %26 = load ptr, ptr %5, align 8
  %27 = load ptr, ptr %26, align 8
  %28 = call noundef i32 @_ZL15yy_init_globalsPv(ptr noundef %27)
  store i32 %28, ptr %3, align 4
  br label %29

29:                                               ; preds = %20, %18, %10
  %30 = load i32, ptr %3, align 4
  ret i32 %30
}